target datalayout = "e-m:e-p270:32:32-p271:32:32-p272:64:64-i64:64-i128:128-f80:128-n8:16:32:64-S128"
target triple = "x86_64-pc-linux-gnu"

%struct._value_string_ext = type { ptr, i32, i32, ptr, ptr }
%struct.expert_field = type { i32, i32 }
%struct.hopcount_info_t = type { i8, ptr, i8 }
%struct._packet_info = type { ptr, ptr, i32, i32, %struct.nstime_t, %struct.nstime_t, %struct.nstime_t, i8, ptr, ptr, ptr, ptr, %struct._address, %struct._address, %struct._address, %struct._address, %struct._address, %struct._address, i32, ptr, i8, [3 x i8], %struct.anon, i32, i32, i32, i32, ptr, i8, ptr, ptr, i16, i16, i32, i32, i16, i32, i32, ptr, ptr, ptr, i8, i8, i16, i16, i16, i32, i16, i16, ptr, ptr, ptr, ptr, ptr, i32, i32 }
%struct.nstime_t = type { i64, i32 }
%struct._address = type { i32, i32, ptr, ptr }
%struct.anon = type { i8, [3 x i8] }

@hf_dhcpv6_msgtype = internal global i32 0, align 4
@msgtype_vals_ext = internal global %struct._value_string_ext { ptr @_try_val_to_str_ext_init, i32 0, i32 21, ptr @msgtype_vals, ptr @.str.465 }, align 8
@hf_dhcpv6_hopcount = internal global i32 0, align 4
@hf_dhcpv6_xid = internal global i32 0, align 4
@hf_dhcpv6_linkaddr = internal global i32 0, align 4
@hf_dhcpv6_peeraddr = internal global i32 0, align 4
@ett_dhcpv6 = internal global i32 0, align 4
@ei_dhcpv6_error_hopcount = internal global %struct.expert_field zeroinitializer, align 4
@proto_dhcpv6 = internal global i32 0, align 4
@.str.879 = private unnamed_addr constant [16 x i8] c"Message Type %u\00", align 1
@.str.946 = private unnamed_addr constant [4 x i8] c"%s \00", align 1
@.str.947 = private unnamed_addr constant [61 x i8] c"Hopcount (%d) exceeds the maximum limit HOP_COUNT_LIMIT (%d)\00", align 1
@.str.948 = private unnamed_addr constant [72 x i8] c"hopcount is not correctly incremented by 1 (expected : %d, actual : %d)\00", align 1
@.str.949 = private unnamed_addr constant [7 x i8] c"L: %s \00", align 1
@.str.950 = private unnamed_addr constant [60 x i8] c"Hopcount of most inner message has to equal 0 instead of %d\00", align 1
@.str.951 = private unnamed_addr constant [13 x i8] c"XID: 0x%06x \00", align 1

; Function Attrs: null_pointer_is_valid sspstrong uwtable
define internal void @dissect_dhcpv6(ptr noundef %0, ptr noundef %1, ptr noundef %2, i32 noundef %3, i32 noundef %4, ptr noundef byval(%struct.hopcount_info_t) align 8 %5) #0 {
  %7 = alloca ptr, align 8
  %8 = alloca ptr, align 8
  %9 = alloca ptr, align 8
  %10 = alloca i32, align 4
  %11 = alloca i32, align 4
  %12 = alloca ptr, align 8
  %13 = alloca ptr, align 8
  %14 = alloca i8, align 1
  %15 = alloca i8, align 1
  %16 = alloca i8, align 1
  %17 = alloca ptr, align 8
  store ptr %0, ptr %7, align 8
  store ptr %1, ptr %8, align 8
  store ptr %2, ptr %9, align 8
  store i32 %3, ptr %10, align 4
  store i32 %4, ptr %11, align 4
  call void @llvm.lifetime.start.p0(i64 8, ptr %12) #9
  store ptr null, ptr %12, align 8
  call void @llvm.lifetime.start.p0(i64 8, ptr %13) #9
  call void @llvm.lifetime.start.p0(i64 1, ptr %14) #9
  call void @llvm.lifetime.start.p0(i64 1, ptr %15) #9
  %18 = load ptr, ptr %7, align 8
  %19 = load i32, ptr %10, align 4
  %20 = call zeroext i8 @tvb_get_uint8(ptr noundef %18, i32 noundef %19)
  store i8 %20, ptr %15, align 1
  %21 = load ptr, ptr %8, align 8
  %22 = getelementptr inbounds nuw %struct._packet_info, ptr %21, i32 0, i32 1
  %23 = load ptr, ptr %22, align 8
  %24 = load i8, ptr %15, align 1
  %25 = zext i8 %24 to i32
  %26 = call ptr @val_to_str_ext(i32 noundef %25, ptr noundef @msgtype_vals_ext, ptr noundef @.str.879)
  call void (ptr, i32, ptr, ...) @col_append_fstr(ptr noundef %23, i32 noundef 25, ptr noundef @.str.946, ptr noundef %26)
  %27 = load ptr, ptr %9, align 8
  %28 = icmp ne ptr %27, null
  br i1 %28, label %29, label %41

29:                                               ; preds = %6
  %30 = load ptr, ptr %9, align 8
  %31 = load i32, ptr @proto_dhcpv6, align 4
  %32 = load ptr, ptr %7, align 8
  %33 = load i32, ptr %10, align 4
  %34 = load i32, ptr %11, align 4
  %35 = load i32, ptr %10, align 4
  %36 = sub i32 %34, %35
  %37 = call ptr @proto_tree_add_item(ptr noundef %30, i32 noundef %31, ptr noundef %32, i32 noundef %33, i32 noundef %36, i32 noundef 0)
  store ptr %37, ptr %13, align 8
  %38 = load ptr, ptr %13, align 8
  %39 = load i32, ptr @ett_dhcpv6, align 4
  %40 = call ptr @proto_item_add_subtree(ptr noundef %38, i32 noundef %39)
  store ptr %40, ptr %12, align 8
  br label %41

41:                                               ; preds = %29, %6
  %42 = load i8, ptr %15, align 1
  %43 = zext i8 %42 to i32
  %44 = icmp eq i32 %43, 12
  br i1 %44, label %49, label %45

45:                                               ; preds = %41
  %46 = load i8, ptr %15, align 1
  %47 = zext i8 %46 to i32
  %48 = icmp eq i32 %47, 13
  br i1 %48, label %49, label %135

49:                                               ; preds = %45, %41
  call void @llvm.lifetime.start.p0(i64 1, ptr %16) #9
  %50 = getelementptr inbounds nuw %struct.hopcount_info_t, ptr %5, i32 0, i32 0
  %51 = load i8, ptr %50, align 8
  store i8 %51, ptr %16, align 1
  call void @llvm.lifetime.start.p0(i64 8, ptr %17) #9
  %52 = getelementptr inbounds nuw %struct.hopcount_info_t, ptr %5, i32 0, i32 1
  %53 = load ptr, ptr %52, align 8
  store ptr %53, ptr %17, align 8
  %54 = load ptr, ptr %9, align 8
  %55 = icmp ne ptr %54, null
  br i1 %55, label %56, label %81

56:                                               ; preds = %49
  %57 = load ptr, ptr %12, align 8
  %58 = load i32, ptr @hf_dhcpv6_msgtype, align 4
  %59 = load ptr, ptr %7, align 8
  %60 = load i32, ptr %10, align 4
  %61 = call ptr @proto_tree_add_item(ptr noundef %57, i32 noundef %58, ptr noundef %59, i32 noundef %60, i32 noundef 1, i32 noundef 0)
  %62 = load ptr, ptr %12, align 8
  %63 = load i32, ptr @hf_dhcpv6_hopcount, align 4
  %64 = load ptr, ptr %7, align 8
  %65 = load i32, ptr %10, align 4
  %66 = add i32 %65, 1
  %67 = call ptr @proto_tree_add_item(ptr noundef %62, i32 noundef %63, ptr noundef %64, i32 noundef %66, i32 noundef 1, i32 noundef 0)
  %68 = getelementptr inbounds nuw %struct.hopcount_info_t, ptr %5, i32 0, i32 1
  store ptr %67, ptr %68, align 8
  %69 = load ptr, ptr %12, align 8
  %70 = load i32, ptr @hf_dhcpv6_linkaddr, align 4
  %71 = load ptr, ptr %7, align 8
  %72 = load i32, ptr %10, align 4
  %73 = add i32 %72, 2
  %74 = call ptr @proto_tree_add_item(ptr noundef %69, i32 noundef %70, ptr noundef %71, i32 noundef %73, i32 noundef 16, i32 noundef 0)
  %75 = load ptr, ptr %12, align 8
  %76 = load i32, ptr @hf_dhcpv6_peeraddr, align 4
  %77 = load ptr, ptr %7, align 8
  %78 = load i32, ptr %10, align 4
  %79 = add i32 %78, 18
  %80 = call ptr @proto_tree_add_item(ptr noundef %75, i32 noundef %76, ptr noundef %77, i32 noundef %79, i32 noundef 16, i32 noundef 0)
  br label %81

81:                                               ; preds = %56, %49
  %82 = load ptr, ptr %7, align 8
  %83 = load i32, ptr %10, align 4
  %84 = add i32 %83, 1
  %85 = call zeroext i8 @tvb_get_uint8(ptr noundef %82, i32 noundef %84)
  %86 = getelementptr inbounds nuw %struct.hopcount_info_t, ptr %5, i32 0, i32 0
  store i8 %85, ptr %86, align 8
  %87 = getelementptr inbounds nuw %struct.hopcount_info_t, ptr %5, i32 0, i32 0
  %88 = load i8, ptr %87, align 8
  %89 = zext i8 %88 to i32
  %90 = icmp sgt i32 %89, 32
  br i1 %90, label %91, label %99

91:                                               ; preds = %81
  %92 = load ptr, ptr %8, align 8
  %93 = getelementptr inbounds nuw %struct.hopcount_info_t, ptr %5, i32 0, i32 1
  %94 = load ptr, ptr %93, align 8
  %95 = getelementptr inbounds nuw %struct.hopcount_info_t, ptr %5, i32 0, i32 0
  %96 = load i8, ptr %95, align 8
  %97 = zext i8 %96 to i32
  %98 = call ptr (ptr, ptr, ptr, ptr, ...) @expert_add_info_format(ptr noundef %92, ptr noundef %94, ptr noundef @ei_dhcpv6_error_hopcount, ptr noundef @.str.947, i32 noundef %97, i32 noundef 32)
  br label %99

99:                                               ; preds = %91, %81
  %100 = getelementptr inbounds nuw %struct.hopcount_info_t, ptr %5, i32 0, i32 2
  %101 = load i8, ptr %100, align 8, !range !6, !noundef !7
  %102 = trunc i8 %101 to i1
  br i1 %102, label %103, label %121

103:                                              ; preds = %99
  %104 = getelementptr inbounds nuw %struct.hopcount_info_t, ptr %5, i32 0, i32 0
  %105 = load i8, ptr %104, align 8
  %106 = zext i8 %105 to i32
  %107 = load i8, ptr %16, align 1
  %108 = zext i8 %107 to i32
  %109 = sub i32 %108, 1
  %110 = icmp ne i32 %106, %109
  br i1 %110, label %111, label %121

111:                                              ; preds = %103
  %112 = load ptr, ptr %8, align 8
  %113 = load ptr, ptr %17, align 8
  %114 = getelementptr inbounds nuw %struct.hopcount_info_t, ptr %5, i32 0, i32 0
  %115 = load i8, ptr %114, align 8
  %116 = zext i8 %115 to i32
  %117 = add i32 %116, 1
  %118 = load i8, ptr %16, align 1
  %119 = zext i8 %118 to i32
  %120 = call ptr (ptr, ptr, ptr, ptr, ...) @expert_add_info_format(ptr noundef %112, ptr noundef %113, ptr noundef @ei_dhcpv6_error_hopcount, ptr noundef @.str.948, i32 noundef %117, i32 noundef %119)
  br label %121

121:                                              ; preds = %111, %103, %99
  %122 = getelementptr inbounds nuw %struct.hopcount_info_t, ptr %5, i32 0, i32 2
  store i8 1, ptr %122, align 8
  %123 = load ptr, ptr %8, align 8
  %124 = getelementptr inbounds nuw %struct._packet_info, ptr %123, i32 0, i32 1
  %125 = load ptr, ptr %124, align 8
  %126 = load ptr, ptr %8, align 8
  %127 = getelementptr inbounds nuw %struct._packet_info, ptr %126, i32 0, i32 51
  %128 = load ptr, ptr %127, align 8
  %129 = load ptr, ptr %7, align 8
  %130 = load i32, ptr %10, align 4
  %131 = add i32 %130, 2
  %132 = call ptr @tvb_address_to_str(ptr noundef %128, ptr noundef %129, i32 noundef 3, i32 noundef %131)
  call void (ptr, i32, ptr, ...) @col_append_fstr(ptr noundef %125, i32 noundef 25, ptr noundef @.str.949, ptr noundef %132)
  %133 = load i32, ptr %10, align 4
  %134 = add i32 %133, 34
  store i32 %134, ptr %10, align 4
  call void @llvm.lifetime.end.p0(i64 8, ptr %17) #9
  call void @llvm.lifetime.end.p0(i64 1, ptr %16) #9
  br label %172

135:                                              ; preds = %45
  %136 = getelementptr inbounds nuw %struct.hopcount_info_t, ptr %5, i32 0, i32 0
  %137 = load i8, ptr %136, align 8
  %138 = icmp ne i8 %137, 0
  br i1 %138, label %139, label %147

139:                                              ; preds = %135
  %140 = load ptr, ptr %8, align 8
  %141 = getelementptr inbounds nuw %struct.hopcount_info_t, ptr %5, i32 0, i32 1
  %142 = load ptr, ptr %141, align 8
  %143 = getelementptr inbounds nuw %struct.hopcount_info_t, ptr %5, i32 0, i32 0
  %144 = load i8, ptr %143, align 8
  %145 = zext i8 %144 to i32
  %146 = call ptr (ptr, ptr, ptr, ptr, ...) @expert_add_info_format(ptr noundef %140, ptr noundef %142, ptr noundef @ei_dhcpv6_error_hopcount, ptr noundef @.str.950, i32 noundef %145)
  br label %147

147:                                              ; preds = %139, %135
  %148 = load ptr, ptr %9, align 8
  %149 = icmp ne ptr %148, null
  br i1 %149, label %150, label %162

150:                                              ; preds = %147
  %151 = load ptr, ptr %12, align 8
  %152 = load i32, ptr @hf_dhcpv6_msgtype, align 4
  %153 = load ptr, ptr %7, align 8
  %154 = load i32, ptr %10, align 4
  %155 = call ptr @proto_tree_add_item(ptr noundef %151, i32 noundef %152, ptr noundef %153, i32 noundef %154, i32 noundef 1, i32 noundef 0)
  %156 = load ptr, ptr %12, align 8
  %157 = load i32, ptr @hf_dhcpv6_xid, align 4
  %158 = load ptr, ptr %7, align 8
  %159 = load i32, ptr %10, align 4
  %160 = add i32 %159, 1
  %161 = call ptr @proto_tree_add_item(ptr noundef %156, i32 noundef %157, ptr noundef %158, i32 noundef %160, i32 noundef 3, i32 noundef 0)
  br label %162

162:                                              ; preds = %150, %147
  %163 = load ptr, ptr %8, align 8
  %164 = getelementptr inbounds nuw %struct._packet_info, ptr %163, i32 0, i32 1
  %165 = load ptr, ptr %164, align 8
  %166 = load ptr, ptr %7, align 8
  %167 = load i32, ptr %10, align 4
  %168 = add i32 %167, 1
  %169 = call i32 @tvb_get_ntoh24(ptr noundef %166, i32 noundef %168)
  call void (ptr, i32, ptr, ...) @col_append_fstr(ptr noundef %165, i32 noundef 25, ptr noundef @.str.951, i32 noundef %169)
  %170 = load i32, ptr %10, align 4
  %171 = add i32 %170, 4
  store i32 %171, ptr %10, align 4
  br label %172

172:                                              ; preds = %162, %121
  store i8 0, ptr %14, align 1
  br label %173

173:                                              ; preds = %183, %172
  %174 = load i32, ptr %10, align 4
  %175 = load i32, ptr %11, align 4
  %176 = icmp slt i32 %174, %175
  br i1 %176, label %177, label %181

177:                                              ; preds = %173
  %178 = load i8, ptr %14, align 1, !range !6, !noundef !7
  %179 = trunc i8 %178 to i1
  %180 = xor i1 %179, true
  br label %181

181:                                              ; preds = %177, %173
  %182 = phi i1 [ false, %173 ], [ %180, %177 ]
  br i1 %182, label %183, label %194

183:                                              ; preds = %181
  %184 = load ptr, ptr %7, align 8
  %185 = load ptr, ptr %8, align 8
  %186 = load ptr, ptr %12, align 8
  %187 = load i32, ptr %10, align 4
  %188 = load i32, ptr %11, align 4
  %189 = load i32, ptr @proto_dhcpv6, align 4
  %190 = load i8, ptr %15, align 1
  %191 = call i32 @dhcpv6_option(ptr noundef %184, ptr noundef %185, ptr noundef %186, i32 noundef %187, i32 noundef %188, ptr noundef %14, i32 noundef %189, ptr noundef byval(%struct.hopcount_info_t) align 8 %5, i8 noundef zeroext %190)
  %192 = load i32, ptr %10, align 4
  %193 = add i32 %192, %191
  store i32 %193, ptr %10, align 4
  br label %173, !llvm.loop !45

194:                                              ; preds = %181
  call void @llvm.lifetime.end.p0(i64 1, ptr %15) #9
  call void @llvm.lifetime.end.p0(i64 1, ptr %14) #9
  call void @llvm.lifetime.end.p0(i64 8, ptr %13) #9
  call void @llvm.lifetime.end.p0(i64 8, ptr %12) #9
  ret void
}