; Function Attrs: null_pointer_is_valid sspstrong uwtable
define internal fastcc void @dissect_dhcpv6(ptr noundef %0, ptr noundef %1, ptr noundef %2, i32 noundef %3, i32 noundef %4, ptr noundef byval(%struct.hopcount_info_t) align 8 captures(none) %5) unnamed_addr #0 {
  %7 = alloca i8, align 1
  call void @llvm.lifetime.start.p0(i64 1, ptr nonnull %7) #7
  %8 = tail call zeroext i8 @tvb_get_uint8(ptr noundef %0, i32 noundef %3)
  %9 = getelementptr inbounds nuw i8, ptr %1, i64 8
  %10 = load ptr, ptr %9, align 8
  %11 = zext i8 %8 to i32
  %12 = tail call ptr @val_to_str_ext(i32 noundef %11, ptr noundef nonnull @msgtype_vals_ext, ptr noundef nonnull @.str.879)
  tail call void (ptr, i32, ptr, ...) @col_append_fstr(ptr noundef %10, i32 noundef 25, ptr noundef nonnull @.str.946, ptr noundef %12)
  %.not = icmp eq ptr %2, null
  br i1 %.not, label %13, label %.thread

13:                                               ; preds = %6
  %14 = and i8 %8, -2
  %or.cond = icmp eq i8 %14, 12
  br i1 %or.cond, label %21, label %67

.thread:                                          ; preds = %6
  %15 = load i32, ptr @proto_dhcpv6, align 4
  %16 = sub i32 %4, %3
  %17 = tail call ptr @proto_tree_add_item(ptr noundef nonnull %2, i32 noundef %15, ptr noundef %0, i32 noundef %3, i32 noundef %16, i32 noundef 0)
  %18 = load i32, ptr @ett_dhcpv6, align 4
  %19 = tail call ptr @proto_item_add_subtree(ptr noundef %17, i32 noundef %18)
  %20 = and i8 %8, -2
  %or.cond71 = icmp eq i8 %20, 12
  br i1 %or.cond71, label %25, label %67

21:                                               ; preds = %13
  %22 = load i8, ptr %5, align 8
  %23 = getelementptr inbounds nuw i8, ptr %5, i64 8
  %24 = load ptr, ptr %23, align 8
  %.pre = add i32 %3, 1
  br label %40

25:                                               ; preds = %.thread
  %26 = load i8, ptr %5, align 8
  %27 = getelementptr inbounds nuw i8, ptr %5, i64 8
  %28 = load ptr, ptr %27, align 8
  %29 = load i32, ptr @hf_dhcpv6_msgtype, align 4
  %30 = tail call ptr @proto_tree_add_item(ptr noundef %19, i32 noundef %29, ptr noundef %0, i32 noundef %3, i32 noundef 1, i32 noundef 0)
  %31 = load i32, ptr @hf_dhcpv6_hopcount, align 4
  %32 = add i32 %3, 1
  %33 = tail call ptr @proto_tree_add_item(ptr noundef %19, i32 noundef %31, ptr noundef %0, i32 noundef %32, i32 noundef 1, i32 noundef 0)
  store ptr %33, ptr %27, align 8
  %34 = load i32, ptr @hf_dhcpv6_linkaddr, align 4
  %35 = add i32 %3, 2
  %36 = tail call ptr @proto_tree_add_item(ptr noundef %19, i32 noundef %34, ptr noundef %0, i32 noundef %35, i32 noundef 16, i32 noundef 0)
  %37 = load i32, ptr @hf_dhcpv6_peeraddr, align 4
  %38 = add i32 %3, 18
  %39 = tail call ptr @proto_tree_add_item(ptr noundef %19, i32 noundef %37, ptr noundef %0, i32 noundef %38, i32 noundef 16, i32 noundef 0)
  br label %40

40:                                               ; preds = %21, %25
  %.pre-phi = phi i32 [ %.pre, %21 ], [ %32, %25 ]
  %41 = phi ptr [ %24, %21 ], [ %28, %25 ]
  %42 = phi ptr [ %23, %21 ], [ %27, %25 ]
  %43 = phi i8 [ %22, %21 ], [ %26, %25 ]
  %.0607278 = phi ptr [ null, %21 ], [ %19, %25 ]
  %44 = tail call zeroext i8 @tvb_get_uint8(ptr noundef %0, i32 noundef %.pre-phi)
  store i8 %44, ptr %5, align 8
  %45 = icmp ugt i8 %44, 32
  br i1 %45, label %46, label %50

46:                                               ; preds = %40
  %47 = zext i8 %44 to i32
  %48 = load ptr, ptr %42, align 8
  %49 = tail call ptr (ptr, ptr, ptr, ptr, ...) @expert_add_info_format(ptr noundef %1, ptr noundef %48, ptr noundef nonnull @ei_dhcpv6_error_hopcount, ptr noundef nonnull @.str.947, i32 noundef %47, i32 noundef 32)
  br label %50

50:                                               ; preds = %46, %40
  %51 = getelementptr inbounds nuw i8, ptr %5, i64 16
  %52 = load i8, ptr %51, align 8, !range !6, !noundef !7
  %53 = trunc nuw i8 %52 to i1
  br i1 %53, label %54, label %61

54:                                               ; preds = %50
  %55 = zext i8 %44 to i32
  %56 = zext i8 %43 to i32
  %57 = add nsw i32 %56, -1
  %.not67 = icmp eq i32 %57, %55
  br i1 %.not67, label %61, label %58

58:                                               ; preds = %54
  %59 = add nuw nsw i32 %55, 1
  %60 = tail call ptr (ptr, ptr, ptr, ptr, ...) @expert_add_info_format(ptr noundef %1, ptr noundef %41, ptr noundef nonnull @ei_dhcpv6_error_hopcount, ptr noundef nonnull @.str.948, i32 noundef %59, i32 noundef %56)
  br label %61

61:                                               ; preds = %58, %54, %50
  store i8 1, ptr %51, align 8
  %62 = load ptr, ptr %9, align 8
  %63 = getelementptr inbounds nuw i8, ptr %1, i64 408
  %64 = load ptr, ptr %63, align 8
  %65 = add i32 %3, 2
  %66 = tail call ptr @tvb_address_to_str(ptr noundef %64, ptr noundef %0, i32 noundef 3, i32 noundef %65)
  tail call void (ptr, i32, ptr, ...) @col_append_fstr(ptr noundef %62, i32 noundef 25, ptr noundef nonnull @.str.949, ptr noundef %66)
  br label %84

67:                                               ; preds = %.thread, %13
  %.06074 = phi ptr [ %19, %.thread ], [ null, %13 ]
  %68 = load i8, ptr %5, align 8
  %.not66 = icmp eq i8 %68, 0
  br i1 %.not66, label %74, label %69

69:                                               ; preds = %67
  %70 = getelementptr inbounds nuw i8, ptr %5, i64 8
  %71 = load ptr, ptr %70, align 8
  %72 = zext i8 %68 to i32
  %73 = tail call ptr (ptr, ptr, ptr, ptr, ...) @expert_add_info_format(ptr noundef %1, ptr noundef %71, ptr noundef nonnull @ei_dhcpv6_error_hopcount, ptr noundef nonnull @.str.950, i32 noundef %72)
  br label %74

74:                                               ; preds = %69, %67
  br i1 %.not, label %._crit_edge82, label %75

._crit_edge82:                                    ; preds = %74
  %.pre83 = add i32 %3, 1
  br label %81

75:                                               ; preds = %74
  %76 = load i32, ptr @hf_dhcpv6_msgtype, align 4
  %77 = tail call ptr @proto_tree_add_item(ptr noundef %.06074, i32 noundef %76, ptr noundef %0, i32 noundef %3, i32 noundef 1, i32 noundef 0)
  %78 = load i32, ptr @hf_dhcpv6_xid, align 4
  %79 = add i32 %3, 1
  %80 = tail call ptr @proto_tree_add_item(ptr noundef %.06074, i32 noundef %78, ptr noundef %0, i32 noundef %79, i32 noundef 3, i32 noundef 0)
  br label %81

81:                                               ; preds = %._crit_edge82, %75
  %.pre-phi84 = phi i32 [ %.pre83, %._crit_edge82 ], [ %79, %75 ]
  %82 = load ptr, ptr %9, align 8
  %83 = tail call i32 @tvb_get_ntoh24(ptr noundef %0, i32 noundef %.pre-phi84)
  tail call void (ptr, i32, ptr, ...) @col_append_fstr(ptr noundef %82, i32 noundef 25, ptr noundef nonnull @.str.951, i32 noundef %83)
  br label %84

84:                                               ; preds = %81, %61
  %.sink = phi i32 [ 4, %81 ], [ 34, %61 ]
  %.06073 = phi ptr [ %.06074, %81 ], [ %.0607278, %61 ]
  %85 = add i32 %3, %.sink
  store i8 0, ptr %7, align 1
  %.not81 = icmp slt i32 %85, %4
  br i1 %.not81, label %.lr.ph, label %._crit_edge

.lr.ph:                                           ; preds = %84, %.lr.ph
  %.180 = phi i32 [ %88, %.lr.ph ], [ %85, %84 ]
  %86 = load i32, ptr @proto_dhcpv6, align 4
  %87 = call fastcc i32 @dhcpv6_option(ptr noundef %0, ptr noundef %1, ptr noundef %.06073, i32 noundef %.180, i32 noundef %4, ptr noundef nonnull %7, i32 noundef %86, ptr noundef byval(%struct.hopcount_info_t) align 8 %5, i8 noundef zeroext %8)
  %88 = add i32 %87, %.180
  %89 = icmp sge i32 %88, %4
  %90 = load i8, ptr %7, align 1, !range !6
  %91 = trunc nuw i8 %90 to i1
  %.not69 = select i1 %89, i1 true, i1 %91
  br i1 %.not69, label %._crit_edge, label %.lr.ph, !llvm.loop !46

._crit_edge:                                      ; preds = %.lr.ph, %84
  call void @llvm.lifetime.end.p0(i64 1, ptr nonnull %7) #7
  ret void
}